target datalayout = "e-m:e-p270:32:32-p271:32:32-p272:64:64-i64:64-i128:128-f80:128-n8:16:32:64-S128"
target triple = "x86_64-pc-linux-gnu"

%struct.Int128_ = type { i64, i64 }

; Function Attrs: nounwind uwtable
define dso_local { i64, i64 } @i128_lshr64(i64 %0, i64 %1, i64 noundef %2) #0 {
  %4 = alloca %struct.Int128_, align 8
  %5 = alloca %struct.Int128_, align 8
  %6 = alloca i64, align 8
  %7 = getelementptr inbounds { i64, i64 }, ptr %5, i32 0, i32 0
  store i64 %0, ptr %7, align 8
  %8 = getelementptr inbounds { i64, i64 }, ptr %5, i32 0, i32 1
  store i64 %1, ptr %8, align 8
  store i64 %2, ptr %6, align 8
  %9 = load i64, ptr %6, align 8
  %10 = icmp eq i64 %9, 0
  br i1 %10, label %11, label %12

11:                                               ; preds = %3
  call void @llvm.memcpy.p0.p0.i64(ptr align 8 %4, ptr align 8 %5, i64 16, i1 false)
  br label %54

12:                                               ; preds = %3
  %13 = load i64, ptr %6, align 8
  %14 = icmp ugt i64 %13, 127
  br i1 %14, label %15, label %18

15:                                               ; preds = %12
  %16 = getelementptr inbounds %struct.Int128_, ptr %4, i32 0, i32 0
  store i64 0, ptr %16, align 8
  %17 = getelementptr inbounds %struct.Int128_, ptr %4, i32 0, i32 1
  store i64 0, ptr %17, align 8
  br label %54

18:                                               ; preds = %12
  %19 = load i64, ptr %6, align 8
  %20 = icmp eq i64 %19, 64
  br i1 %20, label %21, label %26

21:                                               ; preds = %18
  %22 = getelementptr inbounds %struct.Int128_, ptr %4, i32 0, i32 0
  store i64 0, ptr %22, align 8
  %23 = getelementptr inbounds %struct.Int128_, ptr %4, i32 0, i32 1
  %24 = getelementptr inbounds %struct.Int128_, ptr %5, i32 0, i32 0
  %25 = load i64, ptr %24, align 8
  store i64 %25, ptr %23, align 8
  br label %54

26:                                               ; preds = %18
  %27 = load i64, ptr %6, align 8
  %28 = icmp ugt i64 %27, 64
  br i1 %28, label %29, label %37

29:                                               ; preds = %26
  %30 = getelementptr inbounds %struct.Int128_, ptr %4, i32 0, i32 0
  store i64 0, ptr %30, align 8
  %31 = getelementptr inbounds %struct.Int128_, ptr %4, i32 0, i32 1
  %32 = getelementptr inbounds %struct.Int128_, ptr %5, i32 0, i32 0
  %33 = load i64, ptr %32, align 8
  %34 = load i64, ptr %6, align 8
  %35 = sub i64 %34, 64
  %36 = lshr i64 %33, %35
  store i64 %36, ptr %31, align 8
  br label %54

37:                                               ; preds = %26
  %38 = load i64, ptr %6, align 8
  %39 = getelementptr inbounds %struct.Int128_, ptr %5, i32 0, i32 1
  %40 = load i64, ptr %39, align 8
  %41 = lshr i64 %40, %38
  store i64 %41, ptr %39, align 8
  %42 = getelementptr inbounds %struct.Int128_, ptr %5, i32 0, i32 0
  %43 = load i64, ptr %42, align 8
  %44 = load i64, ptr %6, align 8
  %45 = sub i64 64, %44
  %46 = shl i64 %43, %45
  %47 = getelementptr inbounds %struct.Int128_, ptr %5, i32 0, i32 1
  %48 = load i64, ptr %47, align 8
  %49 = or i64 %48, %46
  store i64 %49, ptr %47, align 8
  %50 = load i64, ptr %6, align 8
  %51 = getelementptr inbounds %struct.Int128_, ptr %5, i32 0, i32 0
  %52 = load i64, ptr %51, align 8
  %53 = lshr i64 %52, %50
  store i64 %53, ptr %51, align 8
  call void @llvm.memcpy.p0.p0.i64(ptr align 8 %4, ptr align 8 %5, i64 16, i1 false)
  br label %54

54:                                               ; preds = %37, %29, %21, %15, %11
  %55 = load { i64, i64 }, ptr %4, align 8
  ret { i64, i64 } %55
}

; Function Attrs: nounwind uwtable
define dso_local { i64, i64 } @i128_ashr64(i64 %0, i64 %1, i64 noundef %2) #0 {
  %4 = alloca %struct.Int128_, align 8
  %5 = alloca %struct.Int128_, align 8
  %6 = alloca i64, align 8
  %7 = getelementptr inbounds { i64, i64 }, ptr %5, i32 0, i32 0
  store i64 %0, ptr %7, align 8
  %8 = getelementptr inbounds { i64, i64 }, ptr %5, i32 0, i32 1
  store i64 %1, ptr %8, align 8
  store i64 %2, ptr %6, align 8
  %9 = load i64, ptr %6, align 8
  %10 = icmp eq i64 %9, 0
  br i1 %10, label %11, label %12

11:                                               ; preds = %3
  call void @llvm.memcpy.p0.p0.i64(ptr align 8 %4, ptr align 8 %5, i64 16, i1 false)
  br label %70

12:                                               ; preds = %3
  %13 = getelementptr inbounds %struct.Int128_, ptr %5, i32 0, i32 0
  %14 = load i64, ptr %13, align 8
  %15 = lshr i64 %14, 63
  %16 = icmp ne i64 %15, 0
  br i1 %16, label %28, label %17

17:                                               ; preds = %12
  %18 = load i64, ptr %6, align 8
  %19 = getelementptr inbounds { i64, i64 }, ptr %5, i32 0, i32 0
  %20 = load i64, ptr %19, align 8
  %21 = getelementptr inbounds { i64, i64 }, ptr %5, i32 0, i32 1
  %22 = load i64, ptr %21, align 8
  %23 = call { i64, i64 } @i128_lshr64(i64 %20, i64 %22, i64 noundef %18)
  %24 = getelementptr inbounds { i64, i64 }, ptr %4, i32 0, i32 0
  %25 = extractvalue { i64, i64 } %23, 0
  store i64 %25, ptr %24, align 8
  %26 = getelementptr inbounds { i64, i64 }, ptr %4, i32 0, i32 1
  %27 = extractvalue { i64, i64 } %23, 1
  store i64 %27, ptr %26, align 8
  br label %70

28:                                               ; preds = %12
  %29 = load i64, ptr %6, align 8
  %30 = icmp ugt i64 %29, 127
  br i1 %30, label %31, label %34

31:                                               ; preds = %28
  %32 = getelementptr inbounds %struct.Int128_, ptr %4, i32 0, i32 0
  store i64 -1, ptr %32, align 8
  %33 = getelementptr inbounds %struct.Int128_, ptr %4, i32 0, i32 1
  store i64 -1, ptr %33, align 8
  br label %70

34:                                               ; preds = %28
  %35 = load i64, ptr %6, align 8
  %36 = icmp eq i64 %35, 64
  br i1 %36, label %37, label %42

37:                                               ; preds = %34
  %38 = getelementptr inbounds %struct.Int128_, ptr %4, i32 0, i32 0
  store i64 -1, ptr %38, align 8
  %39 = getelementptr inbounds %struct.Int128_, ptr %4, i32 0, i32 1
  %40 = getelementptr inbounds %struct.Int128_, ptr %5, i32 0, i32 0
  %41 = load i64, ptr %40, align 8
  store i64 %41, ptr %39, align 8
  br label %70

42:                                               ; preds = %34
  %43 = load i64, ptr %6, align 8
  %44 = icmp ugt i64 %43, 64
  br i1 %44, label %45, label %53

45:                                               ; preds = %42
  %46 = getelementptr inbounds %struct.Int128_, ptr %4, i32 0, i32 0
  store i64 -1, ptr %46, align 8
  %47 = getelementptr inbounds %struct.Int128_, ptr %4, i32 0, i32 1
  %48 = getelementptr inbounds %struct.Int128_, ptr %5, i32 0, i32 0
  %49 = load i64, ptr %48, align 8
  %50 = load i64, ptr %6, align 8
  %51 = sub i64 %50, 64
  %52 = ashr i64 %49, %51
  store i64 %52, ptr %47, align 8
  br label %70

53:                                               ; preds = %42
  %54 = getelementptr inbounds %struct.Int128_, ptr %4, i32 0, i32 0
  %55 = getelementptr inbounds %struct.Int128_, ptr %5, i32 0, i32 0
  %56 = load i64, ptr %55, align 8
  %57 = load i64, ptr %6, align 8
  %58 = ashr i64 %56, %57
  store i64 %58, ptr %54, align 8
  %59 = getelementptr inbounds %struct.Int128_, ptr %4, i32 0, i32 1
  %60 = getelementptr inbounds %struct.Int128_, ptr %5, i32 0, i32 1
  %61 = load i64, ptr %60, align 8
  %62 = load i64, ptr %6, align 8
  %63 = lshr i64 %61, %62
  %64 = getelementptr inbounds %struct.Int128_, ptr %5, i32 0, i32 0
  %65 = load i64, ptr %64, align 8
  %66 = load i64, ptr %6, align 8
  %67 = sub i64 64, %66
  %68 = shl i64 %65, %67
  %69 = or i64 %63, %68
  store i64 %69, ptr %59, align 8
  br label %70

70:                                               ; preds = %53, %45, %37, %31, %17, %11
  %71 = load { i64, i64 }, ptr %4, align 8
  ret { i64, i64 } %71
}

; Function Attrs: nounwind uwtable
define dso_local { i64, i64 } @i128_ashr(i64 %0, i64 %1, i64 %2, i64 %3) #0 {
  %5 = alloca %struct.Int128_, align 8
  %6 = alloca %struct.Int128_, align 8
  %7 = alloca %struct.Int128_, align 8
  %8 = getelementptr inbounds { i64, i64 }, ptr %6, i32 0, i32 0
  store i64 %0, ptr %8, align 8
  %9 = getelementptr inbounds { i64, i64 }, ptr %6, i32 0, i32 1
  store i64 %1, ptr %9, align 8
  %10 = getelementptr inbounds { i64, i64 }, ptr %7, i32 0, i32 0
  store i64 %2, ptr %10, align 8
  %11 = getelementptr inbounds { i64, i64 }, ptr %7, i32 0, i32 1
  store i64 %3, ptr %11, align 8
  %12 = getelementptr inbounds %struct.Int128_, ptr %7, i32 0, i32 0
  %13 = load i64, ptr %12, align 8
  %14 = icmp ne i64 %13, 0
  br i1 %14, label %15, label %27

15:                                               ; preds = %4
  %16 = getelementptr inbounds %struct.Int128_, ptr %6, i32 0, i32 0
  %17 = load i64, ptr %16, align 8
  %18 = lshr i64 %17, 63
  %19 = icmp ne i64 %18, 0
  br i1 %19, label %20, label %23

20:                                               ; preds = %15
  %21 = getelementptr inbounds %struct.Int128_, ptr %5, i32 0, i32 0
  store i64 -1, ptr %21, align 8
  %22 = getelementptr inbounds %struct.Int128_, ptr %5, i32 0, i32 1
  store i64 -1, ptr %22, align 8
  br label %26

23:                                               ; preds = %15
  %24 = getelementptr inbounds %struct.Int128_, ptr %5, i32 0, i32 0
  store i64 0, ptr %24, align 8
  %25 = getelementptr inbounds %struct.Int128_, ptr %5, i32 0, i32 1
  store i64 0, ptr %25, align 8
  br label %26

26:                                               ; preds = %23, %20
  br label %39

27:                                               ; preds = %4
  %28 = getelementptr inbounds %struct.Int128_, ptr %7, i32 0, i32 1
  %29 = load i64, ptr %28, align 8
  %30 = getelementptr inbounds { i64, i64 }, ptr %6, i32 0, i32 0
  %31 = load i64, ptr %30, align 8
  %32 = getelementptr inbounds { i64, i64 }, ptr %6, i32 0, i32 1
  %33 = load i64, ptr %32, align 8
  %34 = call { i64, i64 } @i128_ashr64(i64 %31, i64 %33, i64 noundef %29)
  %35 = getelementptr inbounds { i64, i64 }, ptr %5, i32 0, i32 0
  %36 = extractvalue { i64, i64 } %34, 0
  store i64 %36, ptr %35, align 8
  %37 = getelementptr inbounds { i64, i64 }, ptr %5, i32 0, i32 1
  %38 = extractvalue { i64, i64 } %34, 1
  store i64 %38, ptr %37, align 8
  br label %39

39:                                               ; preds = %27, %26
  %40 = load { i64, i64 }, ptr %5, align 8
  ret { i64, i64 } %40
}