; Function Attrs: mustprogress nofree norecurse nosync nounwind willreturn memory(none) uwtable
define dso_local { i64, i64 } @i128_ashr(i64 %0, i64 %1, i64 %2, i64 %3) local_unnamed_addr #1 {
  %.not = icmp eq i64 %2, 0
  br i1 %.not, label %6, label %5

5:                                                ; preds = %4
  %.lobit = ashr i64 %0, 63
  br label %i128_ashr64.exit

6:                                                ; preds = %4
  %7 = icmp eq i64 %3, 0
  br i1 %7, label %i128_ashr64.exit, label %8

8:                                                ; preds = %6
  %.not.i = icmp sgt i64 %0, -1
  %9 = icmp ugt i64 %3, 127
  br i1 %.not.i, label %10, label %24

10:                                               ; preds = %8
  br i1 %9, label %i128_ashr64.exit, label %11

11:                                               ; preds = %10
  %12 = icmp eq i64 %3, 64
  br i1 %12, label %i128_ashr64.exit, label %13

13:                                               ; preds = %11
  %14 = icmp samesign ugt i64 %3, 64
  br i1 %14, label %15, label %18

15:                                               ; preds = %13
  %16 = add nsw i64 %3, -64
  %17 = lshr i64 %0, %16
  br label %i128_ashr64.exit

18:                                               ; preds = %13
  %19 = lshr i64 %1, %3
  %20 = sub nuw nsw i64 64, %3
  %21 = shl i64 %0, %20
  %22 = or disjoint i64 %21, %19
  %23 = lshr i64 %0, %3
  br label %i128_ashr64.exit

24:                                               ; preds = %8
  br i1 %9, label %i128_ashr64.exit, label %25

25:                                               ; preds = %24
  %26 = icmp eq i64 %3, 64
  br i1 %26, label %i128_ashr64.exit, label %27

27:                                               ; preds = %25
  %28 = icmp samesign ugt i64 %3, 64
  br i1 %28, label %29, label %32

29:                                               ; preds = %27
  %30 = add nsw i64 %3, -64
  %31 = ashr i64 %0, %30
  br label %i128_ashr64.exit

32:                                               ; preds = %27
  %33 = ashr i64 %0, %3
  %34 = lshr i64 %1, %3
  %35 = sub nuw nsw i64 64, %3
  %36 = shl i64 %0, %35
  %37 = or disjoint i64 %36, %34
  br label %i128_ashr64.exit

i128_ashr64.exit:                                 ; preds = %32, %29, %25, %24, %18, %15, %11, %10, %6, %5
  %.sroa.03.0 = phi i64 [ %.lobit, %5 ], [ -1, %29 ], [ %33, %32 ], [ %0, %6 ], [ -1, %24 ], [ -1, %25 ], [ 0, %15 ], [ %23, %18 ], [ 0, %10 ], [ 0, %11 ]
  %.sroa.4.0 = phi i64 [ %.lobit, %5 ], [ %31, %29 ], [ %37, %32 ], [ %1, %6 ], [ -1, %24 ], [ %0, %25 ], [ %17, %15 ], [ %22, %18 ], [ 0, %10 ], [ %0, %11 ]
  %.fca.0.insert = insertvalue { i64, i64 } poison, i64 %.sroa.03.0, 0
  %.fca.1.insert = insertvalue { i64, i64 } %.fca.0.insert, i64 %.sroa.4.0, 1
  ret { i64, i64 } %.fca.1.insert
}